; Function Attrs: mustprogress uwtable
define noundef zeroext i1 @_ZNK6casadi6OmpMap4is_aERKNSt7__cxx1112basic_stringIcSt11char_traitsIcESaIcEEEb(ptr noundef nonnull align 8 dereferenceable(1320) %0, ptr noundef nonnull align 8 dereferenceable(32) %1, i1 noundef zeroext %2) unnamed_addr #3 align 2 {
  %4 = tail call noundef i32 @_ZNKSt7__cxx1112basic_stringIcSt11char_traitsIcESaIcEE7compareEPKc(ptr noundef nonnull align 8 dereferenceable(32) %1, ptr noundef nonnull @.str.11) #18
  %5 = icmp eq i32 %4, 0
  %.not = xor i1 %2, true
  %brmerge = or i1 %5, %.not
  br i1 %brmerge, label %_ZNK6casadi3Map4is_aERKNSt7__cxx1112basic_stringIcSt11char_traitsIcESaIcEEEb.exit, label %6

6:                                                ; preds = %3
  %7 = tail call noundef i32 @_ZNKSt7__cxx1112basic_stringIcSt11char_traitsIcESaIcEE7compareEPKc(ptr noundef nonnull align 8 dereferenceable(32) %1, ptr noundef nonnull @.str.10) #18
  %8 = icmp eq i32 %7, 0
  br i1 %8, label %_ZNK6casadi3Map4is_aERKNSt7__cxx1112basic_stringIcSt11char_traitsIcESaIcEEEb.exit, label %9

9:                                                ; preds = %6
  %10 = tail call noundef zeroext i1 @_ZNK6casadi16FunctionInternal4is_aERKNSt7__cxx1112basic_stringIcSt11char_traitsIcESaIcEEEb(ptr noundef nonnull align 8 dereferenceable(1304) %0, ptr noundef nonnull align 8 dereferenceable(32) %1, i1 noundef zeroext true)
  br label %_ZNK6casadi3Map4is_aERKNSt7__cxx1112basic_stringIcSt11char_traitsIcESaIcEEEb.exit

_ZNK6casadi3Map4is_aERKNSt7__cxx1112basic_stringIcSt11char_traitsIcESaIcEEEb.exit: ; preds = %9, %6, %3
  %11 = phi i1 [ %5, %3 ], [ true, %6 ], [ %10, %9 ]
  ret i1 %11
}